target datalayout = "e-m:e-p270:32:32-p271:32:32-p272:64:64-i64:64-i128:128-f80:128-n8:16:32:64-S128"
target triple = "x86_64-pc-linux-gnu"

%class.JvmtiEventEnabled = type { i64 }
%class.OopHandle = type { ptr }
%class.JvmtiEnvThreadEventEnable = type { %class.JvmtiEventEnabled, %class.JvmtiEventEnabled }
%class.JvmtiThreadEventEnable = type { %class.JvmtiEventEnabled }
%class.JvmtiThreadState = type { ptr, ptr, %class.OopHandle, ptr, i8, i8, i8, i8, i8, i32, i32, ptr, i32, ptr, i32, i32, %class.JvmtiThreadEventEnable, ptr, ptr, ptr, ptr, ptr, ptr, ptr, ptr, i8, i32, i32, %union.jvalue, ptr }
%union.jvalue = type { i64 }
%class.JavaThread = type { %class.Thread, i8, %class.OopHandle, %class.OopHandle, %class.OopHandle, %class.OopHandle, %class.JavaFrameAnchor, ptr, %struct.JNIEnv_, ptr, ptr, ptr, ptr, ptr, ptr, ptr, ptr, %class.MemRegion, ptr, i8, ptr, ptr, ptr, i32, i32, %"struct.SafepointMechanism::ThreadData", ptr, ptr, i32, i32, i8, i8, i8, i8, i8, i8, i8, i32, i8, i32, i8, i8, i64, %union.anon, ptr, ptr, i64, i64, ptr, ptr, %class.StackOverflow, ptr, ptr, ptr, i32, i32, ptr, i32, i32, i32, ptr, ptr, i32, i64, i64, %class.StackWatermarks, %class.HandshakeState, ptr, i32, ptr, i32, i32, ptr, %class.Parker, ptr, ptr, %class.LockStack }
%class.Thread = type { %class.ThreadShadow.base, i64, [43 x i64], ptr, ptr, i32, ptr, i64, i64, %class.ThreadLocalAllocBuffer, i64, %class.ThreadHeapSampler, %class.ThreadStatisticalInfo, %class.JfrThreadLocal, ptr, ptr, ptr, ptr, ptr, ptr, i64, i32, i32, ptr, i32, i32, i32, i32, i8, ptr }
%class.ThreadShadow.base = type <{ ptr, ptr, ptr, i32 }>
%class.ThreadLocalAllocBuffer = type <{ ptr, ptr, ptr, ptr, ptr, i64, i64, i64, i64, i32, i32, i32, i32, i64, %class.AdaptiveWeightedAverage, [4 x i8] }>
%class.AdaptiveWeightedAverage = type { float, i32, i32, i8, float }
%class.ThreadHeapSampler = type { i64 }
%class.ThreadStatisticalInfo = type { i64, i64 }
%class.JfrThreadLocal = type <{ ptr, ptr, ptr, ptr, ptr, ptr, ptr, ptr, ptr, ptr, %class.RefCountHandle, i64, i64, i64, i64, i64, i64, i64, i64, i64, i64, i64, i32, i32, i32, i16, i8, i8, i8, i8, i8, [5 x i8] }>
%class.RefCountHandle = type { ptr }
%class.JavaFrameAnchor = type { ptr, ptr, ptr }
%struct.JNIEnv_ = type { ptr }
%class.MemRegion = type { ptr, i64 }
%"struct.SafepointMechanism::ThreadData" = type { i64, i64 }
%union.anon = type { ptr }
%class.StackOverflow = type { i32, ptr, ptr, ptr, ptr, ptr, ptr }
%class.StackWatermarks = type { ptr }
%class.HandshakeState = type <{ ptr, %class.FilterQueue, %class.Monitor, ptr, i8, i8, i8, [5 x i8] }>
%class.FilterQueue = type { ptr }
%class.Monitor = type { %class.Mutex }
%class.Mutex = type { ptr, %class.PlatformMonitor, ptr }
%class.PlatformMonitor = type { %class.PlatformMutex, %union.pthread_cond_t }
%class.PlatformMutex = type { %union.pthread_mutex_t }
%union.pthread_mutex_t = type { %struct.__pthread_mutex_s }
%struct.__pthread_mutex_s = type { i32, i32, i32, i32, i32, i16, i16, %struct.__pthread_internal_list }
%struct.__pthread_internal_list = type { ptr, ptr }
%union.pthread_cond_t = type { %struct.__pthread_cond_s }
%struct.__pthread_cond_s = type { %union.__atomic_wide_counter, %union.__atomic_wide_counter, [2 x i32], [2 x i32], i32, i32, [2 x i32] }
%union.__atomic_wide_counter = type { i64 }
%class.Parker = type { %class.PlatformParker }
%class.PlatformParker = type { i32, i32, [1 x %union.pthread_mutex_t], [2 x %union.pthread_cond_t] }
%class.LockStack = type { i32, i64, [8 x ptr] }
%class.JvmtiEnvThreadState = type { ptr, ptr, ptr, ptr, i32, i8, i8, %class.JvmtiEnvThreadEventEnable, ptr, ptr }
%class.JvmtiEnvThreadStateIterator = type { ptr }

@_ZN6Thread12_thr_currentE = external thread_local global ptr, align 8

; Function Attrs: mustprogress nounwind uwtable
define linkonce_odr hidden noundef zeroext i1 @_ZN16JvmtiThreadState10is_virtualEv(ptr noundef nonnull align 8 dereferenceable(184) %0) #1 comdat align 2 {
  %2 = alloca ptr, align 8
  store ptr %0, ptr %2, align 8
  %3 = load ptr, ptr %2, align 8
  %4 = getelementptr inbounds %class.JvmtiThreadState, ptr %3, i32 0, i32 4
  %5 = load i8, ptr %4, align 8
  %6 = trunc i8 %5 to i1
  ret i1 %6
}

; Function Attrs: mustprogress nounwind uwtable
define linkonce_odr hidden noundef ptr @_ZN6Thread15current_or_nullEv() #1 comdat align 2 {
  %1 = call align 8 ptr @llvm.threadlocal.address.p0(ptr align 8 @_ZN6Thread12_thr_currentE)
  %2 = load ptr, ptr %1, align 8
  ret ptr %2
}

; Function Attrs: mustprogress nounwind uwtable
define linkonce_odr hidden noundef zeroext i1 @_ZN10JavaThread19is_interp_only_modeEv(ptr noundef nonnull align 8 dereferenceable(1800) %0) #1 comdat align 2 {
  %2 = alloca ptr, align 8
  store ptr %0, ptr %2, align 8
  %3 = load ptr, ptr %2, align 8
  %4 = getelementptr inbounds %class.JavaThread, ptr %3, i32 0, i32 70
  %5 = load i32, ptr %4, align 8
  %6 = icmp ne i32 %5, 0
  ret i1 %6
}

; Function Attrs: mustprogress nounwind uwtable
define linkonce_odr hidden void @_ZN10JavaThread34set_should_post_on_exceptions_flagEi(ptr noundef nonnull align 8 dereferenceable(1800) %0, i32 noundef %1) #1 comdat align 2 {
  %3 = alloca ptr, align 8
  %4 = alloca i32, align 4
  store ptr %0, ptr %3, align 8
  store i32 %1, ptr %4, align 4
  %5 = load ptr, ptr %3, align 8
  %6 = load i32, ptr %4, align 4
  %7 = getelementptr inbounds %class.JavaThread, ptr %5, i32 0, i32 71
  store i32 %6, ptr %7, align 4
  ret void
}

; Function Attrs: mustprogress nounwind uwtable
define linkonce_odr hidden noundef ptr @_ZN16JvmtiThreadState19get_thread_or_savedEv(ptr noundef nonnull align 8 dereferenceable(184) %0) #1 comdat align 2 {
  %2 = alloca ptr, align 8
  store ptr %0, ptr %2, align 8
  %3 = load ptr, ptr %2, align 8
  %4 = getelementptr inbounds %class.JvmtiThreadState, ptr %3, i32 0, i32 0
  %5 = load ptr, ptr %4, align 8
  %6 = icmp eq ptr %5, null
  br i1 %6, label %7, label %12

7:                                                ; preds = %1
  %8 = call noundef zeroext i1 @_ZN16JvmtiThreadState10is_virtualEv(ptr noundef nonnull align 8 dereferenceable(184) %3)
  br i1 %8, label %12, label %9

9:                                                ; preds = %7
  %10 = getelementptr inbounds %class.JvmtiThreadState, ptr %3, i32 0, i32 1
  %11 = load ptr, ptr %10, align 8
  br label %15

12:                                               ; preds = %7, %1
  %13 = getelementptr inbounds %class.JvmtiThreadState, ptr %3, i32 0, i32 0
  %14 = load ptr, ptr %13, align 8
  br label %15

15:                                               ; preds = %12, %9
  %16 = phi ptr [ %11, %9 ], [ %14, %12 ]
  ret ptr %16
}

; Function Attrs: mustprogress nounwind uwtable
define linkonce_odr hidden void @_ZN6Thread27leaving_jvmti_env_iterationEv(ptr noundef nonnull align 8 dereferenceable(888) %0) #1 comdat align 2 {
  %2 = alloca ptr, align 8
  store ptr %0, ptr %2, align 8
  %3 = load ptr, ptr %2, align 8
  %4 = getelementptr inbounds %class.Thread, ptr %3, i32 0, i32 22
  %5 = load volatile i32, ptr %4, align 4
  %6 = add nsw i32 %5, -1
  store volatile i32 %6, ptr %4, align 4
  ret void
}

; Function Attrs: mustprogress nounwind uwtable
define linkonce_odr hidden noundef ptr @_ZN19JvmtiEnvThreadState4nextEv(ptr noundef nonnull align 8 dereferenceable(72) %0) #1 comdat align 2 {
  %2 = alloca ptr, align 8
  store ptr %0, ptr %2, align 8
  %3 = load ptr, ptr %2, align 8
  %4 = getelementptr inbounds %class.JvmtiEnvThreadState, ptr %3, i32 0, i32 2
  %5 = load ptr, ptr %4, align 8
  ret ptr %5
}

; Function Attrs: mustprogress nounwind uwtable
define linkonce_odr hidden noundef ptr @_ZN16JvmtiThreadState21head_env_thread_stateEv(ptr noundef nonnull align 8 dereferenceable(184) %0) #1 comdat align 2 {
  %2 = alloca ptr, align 8
  store ptr %0, ptr %2, align 8
  %3 = load ptr, ptr %2, align 8
  %4 = getelementptr inbounds %class.JvmtiThreadState, ptr %3, i32 0, i32 17
  %5 = load ptr, ptr %4, align 8
  ret ptr %5
}

; Function Attrs: mustprogress nounwind uwtable
define linkonce_odr hidden void @_ZN6Thread28entering_jvmti_env_iterationEv(ptr noundef nonnull align 8 dereferenceable(888) %0) #1 comdat align 2 {
  %2 = alloca ptr, align 8
  store ptr %0, ptr %2, align 8
  %3 = load ptr, ptr %2, align 8
  %4 = getelementptr inbounds %class.Thread, ptr %3, i32 0, i32 22
  %5 = load volatile i32, ptr %4, align 4
  %6 = add nsw i32 %5, 1
  store volatile i32 %6, ptr %4, align 4
  ret void
}

; Function Attrs: mustprogress nounwind uwtable
define linkonce_odr hidden noundef ptr @_ZN6Thread7currentEv() #1 comdat align 2 {
  %1 = alloca ptr, align 8
  %2 = call noundef ptr @_ZN6Thread15current_or_nullEv()
  store ptr %2, ptr %1, align 8
  %3 = load ptr, ptr %1, align 8
  ret ptr %3
}

; Function Attrs: mustprogress nounwind uwtable
define linkonce_odr hidden noundef zeroext i1 @_ZN16JvmtiThreadState19is_interp_only_modeEv(ptr noundef nonnull align 8 dereferenceable(184) %0) #1 comdat align 2 {
  %2 = alloca ptr, align 8
  store ptr %0, ptr %2, align 8
  %3 = load ptr, ptr %2, align 8
  %4 = getelementptr inbounds %class.JvmtiThreadState, ptr %3, i32 0, i32 0
  %5 = load ptr, ptr %4, align 8
  %6 = icmp eq ptr %5, null
  br i1 %6, label %7, label %11

7:                                                ; preds = %1
  %8 = getelementptr inbounds %class.JvmtiThreadState, ptr %3, i32 0, i32 15
  %9 = load i32, ptr %8, align 4
  %10 = icmp ne i32 %9, 0
  br label %15

11:                                               ; preds = %1
  %12 = getelementptr inbounds %class.JvmtiThreadState, ptr %3, i32 0, i32 0
  %13 = load ptr, ptr %12, align 8
  %14 = call noundef zeroext i1 @_ZN10JavaThread19is_interp_only_modeEv(ptr noundef nonnull align 8 dereferenceable(1800) %13)
  br label %15

15:                                               ; preds = %11, %7
  %16 = phi i1 [ %10, %7 ], [ %14, %11 ]
  ret i1 %16
}

; Function Attrs: mustprogress nounwind uwtable
define linkonce_odr hidden void @_ZN16JvmtiThreadState29set_should_post_on_exceptionsEb(ptr noundef nonnull align 8 dereferenceable(184) %0, i1 noundef zeroext %1) #1 comdat align 2 {
  %3 = alloca ptr, align 8
  %4 = alloca i8, align 1
  store ptr %0, ptr %3, align 8
  %5 = zext i1 %1 to i8
  store i8 %5, ptr %4, align 1
  %6 = load ptr, ptr %3, align 8
  %7 = call noundef ptr @_ZN16JvmtiThreadState19get_thread_or_savedEv(ptr noundef nonnull align 8 dereferenceable(184) %6)
  %8 = load i8, ptr %4, align 1
  %9 = trunc i8 %8 to i1
  %10 = select i1 %9, i32 1, i32 0
  call void @_ZN10JavaThread34set_should_post_on_exceptions_flagEi(ptr noundef nonnull align 8 dereferenceable(1800) %7, i32 noundef %10)
  ret void
}

; Function Attrs: mustprogress nounwind uwtable
define linkonce_odr hidden noundef ptr @_ZN16JvmtiThreadState10get_threadEv(ptr noundef nonnull align 8 dereferenceable(184) %0) #1 comdat align 2 {
  %2 = alloca ptr, align 8
  store ptr %0, ptr %2, align 8
  %3 = load ptr, ptr %2, align 8
  %4 = getelementptr inbounds %class.JvmtiThreadState, ptr %3, i32 0, i32 0
  %5 = load ptr, ptr %4, align 8
  ret ptr %5
}

; Function Attrs: mustprogress nounwind uwtable
define linkonce_odr hidden void @_ZN17JvmtiEventEnabled8set_bitsEl(ptr noundef nonnull align 8 dereferenceable(8) %0, i64 noundef %1) #1 comdat align 2 {
  %3 = alloca ptr, align 8
  %4 = alloca i64, align 8
  store ptr %0, ptr %3, align 8
  store i64 %1, ptr %4, align 8
  %5 = load ptr, ptr %3, align 8
  %6 = load i64, ptr %4, align 8
  %7 = getelementptr inbounds %class.JvmtiEventEnabled, ptr %5, i32 0, i32 0
  store i64 %6, ptr %7, align 8
  ret void
}

; Function Attrs: mustprogress nounwind uwtable
define linkonce_odr hidden void @_ZN27JvmtiEnvThreadStateIteratorD2Ev(ptr noundef nonnull align 8 dereferenceable(8) %0) unnamed_addr #1 comdat align 2 {
  %2 = alloca ptr, align 8
  store ptr %0, ptr %2, align 8
  %3 = call noundef ptr @_ZN6Thread7currentEv()
  call void @_ZN6Thread27leaving_jvmti_env_iterationEv(ptr noundef nonnull align 8 dereferenceable(888) %3)
  ret void
}

; Function Attrs: mustprogress nounwind uwtable
define linkonce_odr hidden noundef ptr @_ZN27JvmtiEnvThreadStateIterator4nextEP19JvmtiEnvThreadState(ptr noundef nonnull align 8 dereferenceable(8) %0, ptr noundef %1) #1 comdat align 2 {
  %3 = alloca ptr, align 8
  %4 = alloca ptr, align 8
  store ptr %0, ptr %3, align 8
  store ptr %1, ptr %4, align 8
  %5 = load ptr, ptr %4, align 8
  %6 = call noundef ptr @_ZN19JvmtiEnvThreadState4nextEv(ptr noundef nonnull align 8 dereferenceable(72) %5)
  ret ptr %6
}

; Function Attrs: mustprogress nounwind uwtable
define linkonce_odr hidden noundef ptr @_ZN27JvmtiEnvThreadStateIterator5firstEv(ptr noundef nonnull align 8 dereferenceable(8) %0) #1 comdat align 2 {
  %2 = alloca ptr, align 8
  store ptr %0, ptr %2, align 8
  %3 = load ptr, ptr %2, align 8
  %4 = getelementptr inbounds %class.JvmtiEnvThreadStateIterator, ptr %3, i32 0, i32 0
  %5 = load ptr, ptr %4, align 8
  %6 = call noundef ptr @_ZN16JvmtiThreadState21head_env_thread_stateEv(ptr noundef nonnull align 8 dereferenceable(184) %5)
  ret ptr %6
}

; Function Attrs: mustprogress nounwind uwtable
define linkonce_odr hidden void @_ZN27JvmtiEnvThreadStateIteratorC2EP16JvmtiThreadState(ptr noundef nonnull align 8 dereferenceable(8) %0, ptr noundef %1) unnamed_addr #1 comdat align 2 {
  %3 = alloca ptr, align 8
  %4 = alloca ptr, align 8
  store ptr %0, ptr %3, align 8
  store ptr %1, ptr %4, align 8
  %5 = load ptr, ptr %3, align 8
  %6 = load ptr, ptr %4, align 8
  %7 = getelementptr inbounds %class.JvmtiEnvThreadStateIterator, ptr %5, i32 0, i32 0
  store ptr %6, ptr %7, align 8
  %8 = call noundef ptr @_ZN6Thread7currentEv()
  call void @_ZN6Thread28entering_jvmti_env_iterationEv(ptr noundef nonnull align 8 dereferenceable(888) %8)
  ret void
}

; Function Attrs: mustprogress nounwind uwtable
define linkonce_odr hidden noundef i64 @_ZN17JvmtiEventEnabled8get_bitsEv(ptr noundef nonnull align 8 dereferenceable(8) %0) #1 comdat align 2 {
  %2 = alloca ptr, align 8
  store ptr %0, ptr %2, align 8
  %3 = load ptr, ptr %2, align 8
  %4 = getelementptr inbounds %class.JvmtiEventEnabled, ptr %3, i32 0, i32 0
  %5 = load i64, ptr %4, align 8
  ret i64 %5
}

; Function Attrs: mustprogress nounwind uwtable
define linkonce_odr hidden noundef ptr @_ZN16JvmtiThreadState19thread_event_enableEv(ptr noundef nonnull align 8 dereferenceable(184) %0) #1 comdat align 2 {
  %2 = alloca ptr, align 8
  store ptr %0, ptr %2, align 8
  %3 = load ptr, ptr %2, align 8
  %4 = getelementptr inbounds %class.JvmtiThreadState, ptr %3, i32 0, i32 16
  ret ptr %4
}

; Function Attrs: mustprogress nounwind uwtable
define hidden noundef i64 @_ZN27JvmtiEventControllerPrivate24recompute_thread_enabledEP16JvmtiThreadState(ptr noundef %0) #1 align 2 {
  %2 = alloca i64, align 8
  %3 = alloca ptr, align 8
  %4 = alloca i64, align 8
  %5 = alloca i64, align 8
  %6 = alloca i8, align 1
  %7 = alloca %class.JvmtiEnvThreadStateIterator, align 8
  %8 = alloca ptr, align 8
  %9 = alloca i8, align 1
  %10 = alloca i8, align 1
  %11 = alloca i8, align 1
  store ptr %0, ptr %3, align 8
  %12 = load ptr, ptr %3, align 8
  %13 = icmp eq ptr %12, null
  br i1 %13, label %14, label %15

14:                                               ; preds = %1
  store i64 0, ptr %2, align 8
  br label %94

15:                                               ; preds = %1
  %16 = load ptr, ptr %3, align 8
  %17 = call noundef ptr @_ZN16JvmtiThreadState19thread_event_enableEv(ptr noundef nonnull align 8 dereferenceable(184) %16)
  %18 = getelementptr inbounds %class.JvmtiThreadEventEnable, ptr %17, i32 0, i32 0
  %19 = call noundef i64 @_ZN17JvmtiEventEnabled8get_bitsEv(ptr noundef nonnull align 8 dereferenceable(8) %18)
  store i64 %19, ptr %4, align 8
  store i64 0, ptr %5, align 8
  store i8 0, ptr %6, align 1
  %20 = load ptr, ptr %3, align 8
  call void @_ZN27JvmtiEnvThreadStateIteratorC2EP16JvmtiThreadState(ptr noundef nonnull align 8 dereferenceable(8) %7, ptr noundef %20)
  %21 = call noundef ptr @_ZN27JvmtiEnvThreadStateIterator5firstEv(ptr noundef nonnull align 8 dereferenceable(8) %7)
  store ptr %21, ptr %8, align 8
  br label %22

22:                                               ; preds = %40, %15
  %23 = load ptr, ptr %8, align 8
  %24 = icmp ne ptr %23, null
  br i1 %24, label %25, label %43

25:                                               ; preds = %22
  %26 = load ptr, ptr %8, align 8
  %27 = load ptr, ptr %3, align 8
  %28 = call noundef i64 @_ZN27JvmtiEventControllerPrivate28recompute_env_thread_enabledEP19JvmtiEnvThreadStateP16JvmtiThreadState(ptr noundef %26, ptr noundef %27)
  %29 = load i64, ptr %5, align 8
  %30 = or i64 %29, %28
  store i64 %30, ptr %5, align 8
  %31 = load ptr, ptr %8, align 8
  %32 = call noundef zeroext i1 @_ZN19JvmtiEnvThreadState14has_frame_popsEv(ptr noundef nonnull align 8 dereferenceable(72) %31)
  %33 = zext i1 %32 to i32
  %34 = load i8, ptr %6, align 1
  %35 = trunc i8 %34 to i1
  %36 = zext i1 %35 to i32
  %37 = or i32 %36, %33
  %38 = icmp ne i32 %37, 0
  %39 = zext i1 %38 to i8
  store i8 %39, ptr %6, align 1
  br label %40

40:                                               ; preds = %25
  %41 = load ptr, ptr %8, align 8
  %42 = call noundef ptr @_ZN27JvmtiEnvThreadStateIterator4nextEP19JvmtiEnvThreadState(ptr noundef nonnull align 8 dereferenceable(8) %7, ptr noundef %41)
  store ptr %42, ptr %8, align 8
  br label %22, !llvm.loop !10

43:                                               ; preds = %22
  call void @_ZN27JvmtiEnvThreadStateIteratorD2Ev(ptr noundef nonnull align 8 dereferenceable(8) %7) #9
  %44 = load i64, ptr %5, align 8
  %45 = load i64, ptr %4, align 8
  %46 = icmp ne i64 %44, %45
  br i1 %46, label %47, label %64

47:                                               ; preds = %43
  %48 = load ptr, ptr %3, align 8
  %49 = call noundef ptr @_ZN16JvmtiThreadState19thread_event_enableEv(ptr noundef nonnull align 8 dereferenceable(184) %48)
  %50 = getelementptr inbounds %class.JvmtiThreadEventEnable, ptr %49, i32 0, i32 0
  %51 = load i64, ptr %5, align 8
  call void @_ZN17JvmtiEventEnabled8set_bitsEl(ptr noundef nonnull align 8 dereferenceable(8) %50, i64 noundef %51)
  %52 = load ptr, ptr %3, align 8
  %53 = call noundef ptr @_ZN16JvmtiThreadState10get_threadEv(ptr noundef nonnull align 8 dereferenceable(184) %52)
  %54 = icmp ne ptr %53, null
  br i1 %54, label %55, label %63

55:                                               ; preds = %47
  %56 = load i64, ptr %5, align 8
  %57 = and i64 %56, 546816
  %58 = icmp ne i64 %57, 0
  %59 = zext i1 %58 to i8
  store i8 %59, ptr %9, align 1
  %60 = load ptr, ptr %3, align 8
  %61 = load i8, ptr %9, align 1
  %62 = trunc i8 %61 to i1
  call void @_ZN16JvmtiThreadState29set_should_post_on_exceptionsEb(ptr noundef nonnull align 8 dereferenceable(184) %60, i1 noundef zeroext %62)
  br label %63

63:                                               ; preds = %55, %47
  br label %64

64:                                               ; preds = %63, %43
  %65 = load i64, ptr %5, align 8
  %66 = and i64 %65, 1007616
  %67 = icmp ne i64 %66, 0
  br i1 %67, label %71, label %68

68:                                               ; preds = %64
  %69 = load i8, ptr %6, align 1
  %70 = trunc i8 %69 to i1
  br label %71

71:                                               ; preds = %68, %64
  %72 = phi i1 [ true, %64 ], [ %70, %68 ]
  %73 = zext i1 %72 to i8
  store i8 %73, ptr %10, align 1
  %74 = load ptr, ptr %3, align 8
  %75 = call noundef zeroext i1 @_ZN16JvmtiThreadState19is_interp_only_modeEv(ptr noundef nonnull align 8 dereferenceable(184) %74)
  %76 = zext i1 %75 to i8
  store i8 %76, ptr %11, align 1
  %77 = load i8, ptr %10, align 1
  %78 = trunc i8 %77 to i1
  %79 = zext i1 %78 to i32
  %80 = load i8, ptr %11, align 1
  %81 = trunc i8 %80 to i1
  %82 = zext i1 %81 to i32
  %83 = icmp ne i32 %79, %82
  br i1 %83, label %84, label %92

84:                                               ; preds = %71
  %85 = load i8, ptr %10, align 1
  %86 = trunc i8 %85 to i1
  br i1 %86, label %87, label %89

87:                                               ; preds = %84
  %88 = load ptr, ptr %3, align 8
  call void @_ZN27JvmtiEventControllerPrivate22enter_interp_only_modeEP16JvmtiThreadState(ptr noundef %88)
  br label %91

89:                                               ; preds = %84
  %90 = load ptr, ptr %3, align 8
  call void @_ZN27JvmtiEventControllerPrivate22leave_interp_only_modeEP16JvmtiThreadState(ptr noundef %90)
  br label %91

91:                                               ; preds = %89, %87
  br label %92

92:                                               ; preds = %91, %71
  %93 = load i64, ptr %5, align 8
  store i64 %93, ptr %2, align 8
  br label %94

94:                                               ; preds = %92, %14
  %95 = load i64, ptr %2, align 8
  ret i64 %95
}