; Function Attrs: mustprogress nounwind uwtable
define hidden noundef range(i64 0, 4398046511104) i64 @_ZN27JvmtiEventControllerPrivate24recompute_thread_enabledEP16JvmtiThreadState(ptr noundef %0) local_unnamed_addr #3 align 2 {
  %2 = icmp eq ptr %0, null
  br i1 %2, label %40, label %3

3:                                                ; preds = %1
  %4 = getelementptr inbounds i8, ptr %0, i64 80
  %5 = load i64, ptr %4, align 8
  %6 = tail call align 8 ptr @llvm.threadlocal.address.p0(ptr align 8 @_ZN6Thread12_thr_currentE)
  %7 = load ptr, ptr %6, align 8
  %8 = getelementptr inbounds i8, ptr %7, i64 844
  %9 = load volatile i32, ptr %8, align 4
  %10 = add nsw i32 %9, 1
  store volatile i32 %10, ptr %8, align 4
  %11 = getelementptr inbounds i8, ptr %0, i64 88
  %.02934 = load ptr, ptr %11, align 8
  %.not35 = icmp eq ptr %.02934, null
  br i1 %.not35, label %._crit_edge, label %.lr.ph

.lr.ph:                                           ; preds = %3, %.lr.ph
  %.02938 = phi ptr [ %.029, %.lr.ph ], [ %.02934, %3 ]
  %.02737 = phi i64 [ %13, %.lr.ph ], [ 0, %3 ]
  %.02836 = phi i1 [ %15, %.lr.ph ], [ false, %3 ]
  %12 = tail call noundef i64 @_ZN27JvmtiEventControllerPrivate28recompute_env_thread_enabledEP19JvmtiEnvThreadStateP16JvmtiThreadState(ptr noundef nonnull %.02938, ptr noundef nonnull %0)
  %13 = or i64 %12, %.02737
  %14 = tail call noundef zeroext i1 @_ZN19JvmtiEnvThreadState14has_frame_popsEv(ptr noundef nonnull align 8 dereferenceable(72) %.02938) #15
  %15 = or i1 %.02836, %14
  %16 = getelementptr inbounds i8, ptr %.02938, i64 16
  %.029 = load ptr, ptr %16, align 8
  %.not = icmp eq ptr %.029, null
  br i1 %.not, label %._crit_edge.loopexit, label %.lr.ph, !llvm.loop !14

._crit_edge.loopexit:                             ; preds = %.lr.ph
  %.pre = load ptr, ptr %6, align 8
  br label %._crit_edge

._crit_edge:                                      ; preds = %._crit_edge.loopexit, %3
  %17 = phi ptr [ %7, %3 ], [ %.pre, %._crit_edge.loopexit ]
  %.028.lcssa = phi i1 [ false, %3 ], [ %15, %._crit_edge.loopexit ]
  %.027.lcssa = phi i64 [ 0, %3 ], [ %13, %._crit_edge.loopexit ]
  %18 = getelementptr inbounds i8, ptr %17, i64 844
  %19 = load volatile i32, ptr %18, align 4
  %20 = add nsw i32 %19, -1
  store volatile i32 %20, ptr %18, align 4
  %.not31 = icmp eq i64 %.027.lcssa, %5
  %.pre42 = load ptr, ptr %0, align 8
  br i1 %.not31, label %27, label %21

21:                                               ; preds = %._crit_edge
  store i64 %.027.lcssa, ptr %4, align 8
  %.not32 = icmp eq ptr %.pre42, null
  br i1 %.not32, label %27, label %22

22:                                               ; preds = %21
  %23 = and i64 %.027.lcssa, 546816
  %24 = icmp ne i64 %23, 0
  %25 = zext i1 %24 to i32
  %26 = getelementptr inbounds i8, ptr %.pre42, i64 1548
  store i32 %25, ptr %26, align 4
  %.pre41 = load ptr, ptr %0, align 8
  br label %27

27:                                               ; preds = %21, %22, %._crit_edge
  %28 = phi ptr [ null, %21 ], [ %.pre41, %22 ], [ %.pre42, %._crit_edge ]
  %29 = and i64 %.027.lcssa, 1007616
  %30 = icmp ne i64 %29, 0
  %31 = select i1 %30, i1 true, i1 %.028.lcssa
  %32 = icmp eq ptr %28, null
  %33 = getelementptr inbounds i8, ptr %0, i64 76
  %34 = getelementptr inbounds i8, ptr %28, i64 1544
  %.in.in.i = select i1 %32, ptr %33, ptr %34
  %.in.i = load i32, ptr %.in.in.i, align 4
  %35 = icmp ne i32 %.in.i, 0
  %36 = xor i1 %31, %35
  br i1 %36, label %37, label %40

37:                                               ; preds = %27
  br i1 %31, label %38, label %39

38:                                               ; preds = %37
  tail call void @_ZN27JvmtiEventControllerPrivate22enter_interp_only_modeEP16JvmtiThreadState(ptr noundef nonnull %0)
  br label %40

39:                                               ; preds = %37
  tail call void @_ZN27JvmtiEventControllerPrivate22leave_interp_only_modeEP16JvmtiThreadState(ptr noundef nonnull %0)
  br label %40

40:                                               ; preds = %27, %39, %38, %1
  %.0 = phi i64 [ 0, %1 ], [ %.027.lcssa, %38 ], [ %.027.lcssa, %39 ], [ %.027.lcssa, %27 ]
  ret i64 %.0
}